; ModuleID = '10/1541.cpp'
source_filename = "10/1541.cpp"
target datalayout = "e-m:e-p270:32:32-p271:32:32-p272:64:64-i64:64-f80:128-n8:16:32:64-S128"
target triple = "x86_64-pc-linux-gnu"

%"class.std::ios_base::Init" = type { i8 }
%"class.std::basic_istream" = type { i32 (...)**, i64, %"class.std::basic_ios" }
%"class.std::basic_ios" = type { %"class.std::ios_base", %"class.std::basic_ostream"*, i8, i8, %"class.std::basic_streambuf"*, %"class.std::ctype"*, %"class.std::num_put"*, %"class.std::num_get"* }
%"class.std::ios_base" = type { i32 (...)**, i64, i64, i32, i32, i32, %"struct.std::ios_base::_Callback_list"*, %"struct.std::ios_base::_Words", [8 x %"struct.std::ios_base::_Words"], i32, %"struct.std::ios_base::_Words"*, %"class.std::locale" }
%"struct.std::ios_base::_Callback_list" = type { %"struct.std::ios_base::_Callback_list"*, void (i32, %"class.std::ios_base"*, i32)*, i32, i32 }
%"struct.std::ios_base::_Words" = type { i8*, i64 }
%"class.std::locale" = type { %"class.std::locale::_Impl"* }
%"class.std::locale::_Impl" = type { i32, %"class.std::locale::facet"**, i64, %"class.std::locale::facet"**, i8** }
%"class.std::locale::facet" = type <{ i32 (...)**, i32, [4 x i8] }>
%"class.std::basic_ostream" = type { i32 (...)**, %"class.std::basic_ios" }
%"class.std::basic_streambuf" = type { i32 (...)**, i8*, i8*, i8*, i8*, i8*, i8*, %"class.std::locale" }
%"class.std::ctype" = type <{ %"class.std::locale::facet.base", [4 x i8], %struct.__locale_struct*, i8, [7 x i8], i32*, i32*, i16*, i8, [256 x i8], [256 x i8], i8, [6 x i8] }>
%"class.std::locale::facet.base" = type <{ i32 (...)**, i32 }>
%struct.__locale_struct = type { [13 x %struct.__locale_data*], i16*, i32*, i32*, [13 x i8*] }
%struct.__locale_data = type opaque
%"class.std::num_put" = type { %"class.std::locale::facet.base", [4 x i8] }
%"class.std::num_get" = type { %"class.std::locale::facet.base", [4 x i8] }

@_ZStL8__ioinit = internal global %"class.std::ios_base::Init" zeroinitializer, align 1
@__dso_handle = external hidden global i8
@a = dso_local global [25 x i32] zeroinitializer, align 16
@num = dso_local global i32 0, align 4
@b = dso_local global [25 x i32] zeroinitializer, align 16
@i = dso_local global i32 0, align 4
@j = dso_local global i32 0, align 4
@k = dso_local global i32 0, align 4
@_ZSt3cin = external dso_local global %"class.std::basic_istream", align 8
@_ZSt4cout = external dso_local global %"class.std::basic_ostream", align 8
@llvm.global_ctors = appending global [1 x { i32, void ()*, i8* }] [{ i32, void ()*, i8* } { i32 65535, void ()* @_GLOBAL__sub_I_1541.cpp, i8* null }]

; Function Attrs: noinline uwtable
define internal void @__cxx_global_var_init() #0 section ".text.startup" {
  call void @_ZNSt8ios_base4InitC1Ev(%"class.std::ios_base::Init"* @_ZStL8__ioinit)
  %1 = call i32 @__cxa_atexit(void (i8*)* bitcast (void (%"class.std::ios_base::Init"*)* @_ZNSt8ios_base4InitD1Ev to void (i8*)*), i8* getelementptr inbounds (%"class.std::ios_base::Init", %"class.std::ios_base::Init"* @_ZStL8__ioinit, i32 0, i32 0), i8* @__dso_handle) #3
  ret void
}

declare dso_local void @_ZNSt8ios_base4InitC1Ev(%"class.std::ios_base::Init"*) unnamed_addr #1

; Function Attrs: nounwind
declare dso_local void @_ZNSt8ios_base4InitD1Ev(%"class.std::ios_base::Init"*) unnamed_addr #2

; Function Attrs: nounwind
declare dso_local i32 @__cxa_atexit(void (i8*)*, i8*, i8*) #3

; Function Attrs: noinline norecurse uwtable
define dso_local i32 @main() #4 {
  %1 = alloca i32, align 4
  %2 = alloca i32, align 4
  store i32 0, i32* %1, align 4
  %3 = call dereferenceable(280) %"class.std::basic_istream"* @_ZNSirsERi(%"class.std::basic_istream"* @_ZSt3cin, i32* dereferenceable(4) @num)
  store i32 0, i32* @i, align 4
  br label %4

4:                                                ; preds = %16, %0
  %5 = load i32, i32* @i, align 4
  %6 = load i32, i32* @num, align 4
  %7 = icmp slt i32 %5, %6
  br i1 %7, label %8, label %19

8:                                                ; preds = %4
  %9 = load i32, i32* @i, align 4
  %10 = sext i32 %9 to i64
  %11 = getelementptr inbounds [25 x i32], [25 x i32]* @a, i64 0, i64 %10
  %12 = call dereferenceable(280) %"class.std::basic_istream"* @_ZNSirsERi(%"class.std::basic_istream"* @_ZSt3cin, i32* dereferenceable(4) %11)
  %13 = load i32, i32* @i, align 4
  %14 = sext i32 %13 to i64
  %15 = getelementptr inbounds [25 x i32], [25 x i32]* @b, i64 0, i64 %14
  store i32 1, i32* %15, align 4
  br label %16

16:                                               ; preds = %8
  %17 = load i32, i32* @i, align 4
  %18 = add nsw i32 %17, 1
  store i32 %18, i32* @i, align 4
  br label %4

19:                                               ; preds = %4
  store i32 0, i32* %2, align 4
  store i32 1, i32* getelementptr inbounds ([25 x i32], [25 x i32]* @b, i64 0, i64 0), align 16
  store i32 1, i32* @i, align 4
  br label %20

20:                                               ; preds = %69, %19
  %21 = load i32, i32* @i, align 4
  %22 = load i32, i32* @num, align 4
  %23 = icmp slt i32 %21, %22
  br i1 %23, label %24, label %72

24:                                               ; preds = %20
  %25 = load i32, i32* @i, align 4
  %26 = sub nsw i32 %25, 1
  store i32 %26, i32* @j, align 4
  br label %27

27:                                               ; preds = %65, %24
  %28 = load i32, i32* @j, align 4
  %29 = icmp sge i32 %28, 0
  br i1 %29, label %30, label %68

30:                                               ; preds = %27
  %31 = load i32, i32* @j, align 4
  %32 = sext i32 %31 to i64
  %33 = getelementptr inbounds [25 x i32], [25 x i32]* @a, i64 0, i64 %32
  %34 = load i32, i32* %33, align 4
  %35 = load i32, i32* @i, align 4
  %36 = sext i32 %35 to i64
  %37 = getelementptr inbounds [25 x i32], [25 x i32]* @a, i64 0, i64 %36
  %38 = load i32, i32* %37, align 4
  %39 = icmp sge i32 %34, %38
  br i1 %39, label %40, label %64

40:                                               ; preds = %30
  %41 = load i32, i32* @j, align 4
  %42 = sext i32 %41 to i64
  %43 = getelementptr inbounds [25 x i32], [25 x i32]* @b, i64 0, i64 %42
  %44 = load i32, i32* %43, align 4
  %45 = add nsw i32 %44, 1
  store i32 %45, i32* @k, align 4
  %46 = load i32, i32* @k, align 4
  %47 = load i32, i32* @i, align 4
  %48 = sext i32 %47 to i64
  %49 = getelementptr inbounds [25 x i32], [25 x i32]* @b, i64 0, i64 %48
  %50 = load i32, i32* %49, align 4
  %51 = icmp sgt i32 %46, %50
  br i1 %51, label %52, label %63

52:                                               ; preds = %40
  %53 = load i32, i32* @k, align 4
  %54 = load i32, i32* @i, align 4
  %55 = sext i32 %54 to i64
  %56 = getelementptr inbounds [25 x i32], [25 x i32]* @b, i64 0, i64 %55
  store i32 %53, i32* %56, align 4
  %57 = load i32, i32* @k, align 4
  %58 = load i32, i32* %2, align 4
  %59 = icmp sgt i32 %57, %58
  br i1 %59, label %60, label %62

60:                                               ; preds = %52
  %61 = load i32, i32* @k, align 4
  store i32 %61, i32* %2, align 4
  br label %62

62:                                               ; preds = %60, %52
  br label %63

63:                                               ; preds = %62, %40
  br label %64

64:                                               ; preds = %63, %30
  br label %65

65:                                               ; preds = %64
  %66 = load i32, i32* @j, align 4
  %67 = add nsw i32 %66, -1
  store i32 %67, i32* @j, align 4
  br label %27

68:                                               ; preds = %27
  br label %69

69:                                               ; preds = %68
  %70 = load i32, i32* @i, align 4
  %71 = add nsw i32 %70, 1
  store i32 %71, i32* @i, align 4
  br label %20

72:                                               ; preds = %20
  %73 = load i32, i32* %2, align 4
  %74 = call dereferenceable(272) %"class.std::basic_ostream"* @_ZNSolsEi(%"class.std::basic_ostream"* @_ZSt4cout, i32 %73)
  %75 = call dereferenceable(272) %"class.std::basic_ostream"* @_ZNSolsEPFRSoS_E(%"class.std::basic_ostream"* %74, %"class.std::basic_ostream"* (%"class.std::basic_ostream"*)* @_ZSt4endlIcSt11char_traitsIcEERSt13basic_ostreamIT_T0_ES6_)
  ret i32 0
}

declare dso_local dereferenceable(280) %"class.std::basic_istream"* @_ZNSirsERi(%"class.std::basic_istream"*, i32* dereferenceable(4)) #1

declare dso_local dereferenceable(272) %"class.std::basic_ostream"* @_ZNSolsEi(%"class.std::basic_ostream"*, i32) #1

declare dso_local dereferenceable(272) %"class.std::basic_ostream"* @_ZNSolsEPFRSoS_E(%"class.std::basic_ostream"*, %"class.std::basic_ostream"* (%"class.std::basic_ostream"*)*) #1

declare dso_local dereferenceable(272) %"class.std::basic_ostream"* @_ZSt4endlIcSt11char_traitsIcEERSt13basic_ostreamIT_T0_ES6_(%"class.std::basic_ostream"* dereferenceable(272)) #1

; Function Attrs: noinline uwtable
define internal void @_GLOBAL__sub_I_1541.cpp() #0 section ".text.startup" {
  call void @__cxx_global_var_init()
  ret void
}


!llvm.module.flags = !{!0}
!llvm.ident = !{!1}

!0 = !{i32 1, !"wchar_size", i32 4}
!1 = !{!"clang version 10.0.0-4ubuntu1 "}
